; Function Attrs: mustprogress nofree nounwind willreturn memory(write) uwtable
define dso_local double @_Py_c_abs(double %0, double %1) local_unnamed_addr #8 {
  %3 = tail call double @llvm.fabs.f64(double %0)
  %4 = fcmp ueq double %3, 0x7FF0000000000000
  %5 = tail call double @llvm.fabs.f64(double %1)
  %6 = fcmp ueq double %5, 0x7FF0000000000000
  %or.cond = select i1 %4, i1 true, i1 %6
  br i1 %or.cond, label %7, label %15

7:                                                ; preds = %2
  %8 = fcmp oeq double %3, 0x7FF0000000000000
  br i1 %8, label %9, label %11

9:                                                ; preds = %7
  %10 = tail call ptr @__errno_location() #15
  store i32 0, ptr %10, align 4, !tbaa !4
  br label %22

11:                                               ; preds = %7
  %12 = fcmp oeq double %5, 0x7FF0000000000000
  br i1 %12, label %13, label %22

13:                                               ; preds = %11
  %14 = tail call ptr @__errno_location() #15
  store i32 0, ptr %14, align 4, !tbaa !4
  br label %22

15:                                               ; preds = %2
  %16 = tail call double @hypot(double noundef %0, double noundef %1) #16, !tbaa !4
  %17 = tail call double @llvm.fabs.f64(double %16)
  %18 = fcmp ueq double %17, 0x7FF0000000000000
  %19 = tail call ptr @__errno_location() #15
  br i1 %18, label %20, label %21

20:                                               ; preds = %15
  store i32 34, ptr %19, align 4, !tbaa !4
  br label %22

21:                                               ; preds = %15
  store i32 0, ptr %19, align 4, !tbaa !4
  br label %22

22:                                               ; preds = %20, %21, %11, %13, %9
  %.0 = phi double [ 0x7FF0000000000000, %9 ], [ 0x7FF0000000000000, %13 ], [ 0x7FF8000000000000, %11 ], [ %16, %21 ], [ %16, %20 ]
  ret double %.0
}